(dp1
S'output'
p2
S'missing "pass" in view'
p3
sS'layer'
p4
S'ParserContainer'
p5
sS'code'
p6
S'response.write(\'<!DOCTYPE html>\\n<html lang="es">\\n<head>\\n  <title>SIGULAB</title>    \\n  \\n  <!-- http://dev.w3.org/html5/markup/meta.name.html -->\\n  <meta name="application-name" content="SIGULAB">\\n\\n  <meta charset="utf-8">\\n  <meta name="viewport" content="width=device-width, initial-scale=1.0">\\n\\n  <!-- www.phpied.com/conditional-comments-block-downloads/ -->\\n  <!-- Always force latest IE rendering engine\\n       (even in intranet) & Chrome Frame\\n       Remove this if you use the .htaccess -->\\n  <meta http-equiv="X-UA-Compatible" content="IE=edge">\\n\\n  <!-- Avoid search sites from indexing this website -->\\n  <meta name="robots" content="noindex" />\\n\\n  <link rel="icon" type="image/png" sizes="16x16" href="\', escape=False)\nresponse.write(URL(\'static\', \'favicon.ico\'))\nresponse.write(\'">\\n    \\n\\n  <link rel="stylesheet" href="\', escape=False)\nresponse.write(URL(\'static\', \'css/bootstrap.min.css\'))\nresponse.write(\'">\\n  <link rel="stylesheet" href="\', escape=False)\nresponse.write(URL(\'static\',\'css/servicios.css\'))\nresponse.write(\'">\\n  <link rel="stylesheet" href="\', escape=False)\nresponse.write(URL(\'static\',\'font-awesome-4.7.0/css/font-awesome.min.css\'))\nresponse.write(\'">\\n  \\n  <script src="\', escape=False)\nresponse.write(URL(\'static\',\'js/jquery.min.js\'))\nresponse.write(\'"></script>\\n  <script src="\', escape=False)\nresponse.write(URL(\'static\',\'js/bootstrap.min.js\'))\nresponse.write(\'"></script>\\n\\n  <!--[if lt IE 9]>\\n  <script src="https://oss.maxcdn.com/libs/html5shiv/3.7.0/html5shiv.js"></script>\\n  <script src="https://oss.maxcdn.com/libs/respond.js/1.4.2/respond.min.js"></script>\\n  <![endif]-->\\n  \\n  \', escape=False)\nresponse.write(\'\\n\', escape=False)\nresponse.write(\' \\n</head>\\n<body>\\n\\n<!-- Barra de navegaci\\xc3\\xb3n principal -->\\n<div class="container" id="logo">\\n<a class="navbar-brand" href="\', escape=False)\nresponse.write(URL(\'..\', \'sigulab2\'))\nresponse.write(\'"><div class="logotext">SIGULAB</div></a>\\n</div>\\n<nav class="navbar navbar-inverse navbar-fixed-top">\\n  <div class="container-fluid">\\n      <div class="navbar-header">\\n        <button type="button" class="navbar-toggle" data-toggle="collapse" data-target="#myNavbar">\\n          <span class="icon-bar"></span>\\n          <span class="icon-bar"></span>\\n          <span class="icon-bar"></span> \\n          </button>\\n          <a class="navbar-brand" id="hide" href="#"><div class="logotext">SIGULAB</div></a>\\n      </div>\\n      <div class="collapse navbar-collapse" id="myNavbar">\\n\\n        <ul class="nav navbar-nav">\\n            \\n            <li class="dropdown active-item" id="inicio">\\n              <a class="dropdown-toggle" href="\', escape=False)\nresponse.write(URL(\'..\', \'sigulab2\'))\nresponse.write(\'">INICIO</a>\\n            </li>\\n\\n            <li class="dropdown active-item" id="personal">\\n              <a href="#" class="dropdown-toggle" data-toggle="dropdown" role="button" aria-haspopup="true" aria-expanded="false">PERSONAL<span class="caret"></span></a>\\n              <ul class=" dropdown-menu">\\n                <li><a href="\', escape=False)\nresponse.write(URL(\'personal\',\'index\'))\nresponse.write(\'">P\\xc3\\xa1gina Principal</a></li>\\n                <li><a href="\', escape=False)\nresponse.write(URL(\'personal\',\'listado\'))\nresponse.write(\'">Listado General de Personal</a></li>\\n                <li><a href="#">Listado por Categor\\xc3\\xadas de Personal</a></li>\\n                <li><a href="#">Listado por Dependencias de Personal</a></li>\\n                <li><a href="#">Listado por A\\xc3\\xb1os de Servicio de Personal</a></li>\\n              </ul>\\n            </li>\\n            \\n            <li class="dropdown active-item" id="servicios">\\n\\n              <a href="#" class="dropdown-toggle" data-toggle="dropdown" role="button" aria-haspopup="true" aria-expanded="false">SERVICIOS<span class="caret"></span></a>\\n                <ul class=" dropdown-menu">\\n                <li><a href="\', escape=False)\nresponse.write(URL(\'servicios\',\'index\'))\nresponse.write(\'">P\\xc3\\xa1gina Principal</a></li>\\n                <li><a href="\', escape=False)\nresponse.write(URL(\'servicios\',\'listado\'))\nresponse.write(\'">Listado de Servicios</a></li>\\n                <li><a href="\', escape=False)\nresponse.write(URL(\'servicios\',\'solicitudes\'))\nresponse.write(\'">Solicitudes de Servicios</a></li>\\n                <li><a href="\', escape=False)\nresponse.write(URL(\'servicios\',\'certificaciones\'))\nresponse.write(\'">Certificar un servicio</a></li>\\n                <li><a href="\', escape=False)\nresponse.write(URL(\'servicios\',\'historial\'))\nresponse.write(\'">Historial de servicios</a></li>\\n                <li><a href="\', escape=False)\nresponse.write(URL(\'servicios\',\'catalogoServicios\'))\nresponse.write(\'">Cat\\xc3\\xa1logo de Servicios</a></li>\\n              </ul>\\n            </li>\\n\\n            <li class="dropdown active-item" id="smydp">\\n              <a href="#" class="dropdown-toggle" data-toggle="dropdown" role="button" aria-haspopup="true" aria-expanded="false">SMyDP<span class="caret"></span></a>\\n                <ul class="dropdown-menu">\\n                <li><a href="\', escape=False)\nresponse.write(URL(\'smydp\', \'index\'))\nresponse.write(\'">P\\xc3\\xa1gina Principal</a></li>\\n                  <li><a href="\', escape=False)\nresponse.write(URL(\'smydp\', \'catalogo\'))\nresponse.write(\'">Listado de Sustancias</a></li>\\n                  <li><a href="\', escape=False)\nresponse.write(URL(\'smydp\', \'inventarios\'))\nresponse.write(\'">Inventario</a></li>\\n                 </ul>\\n            </li> \\n            <li class="dropdown active-item" id="smydp">\\n              <a href="#" class="dropdown-toggle" data-toggle="dropdown" role="button" aria-haspopup="true" aria-expanded="false">INFORMACI\\xc3\\x93N DOCUMENTADA<span class="caret"></span></a>\\n                <ul class="dropdown-menu">\\n                <li><a href="\', escape=False)\nresponse.write(URL(\'informacion_documentada\', \'index\'))\nresponse.write(\'">P\\xc3\\xa1gina Principal</a></li>\\n                  <li><a href="\', escape=False)\nresponse.write(URL(\'informacion_documentada\', \'lista_documentos\'))\nresponse.write(\'">Listado de Documentos</a></li>\\n                  <li><a href="\', escape=False)\nresponse.write(URL(\'informacion_documentada\', \'lista_registros\'))\nresponse.write(\'">Listado de Registros</a></li>\\n                 </ul>\\n            </li> \\n\\n        </ul>\\n\\n      <ul class="nav navbar-nav navbar-right">\\n      \', escape=False)\nif auth.has_membership(\'ADMINISTRADOR PERSONAL\') \\\nor auth.has_membership(\'WEBMASTER\')\\\nor auth.has_membership(\'DIRECTOR\'):\n    response.write(\'\\n        <li class="dropdown">\\n          <div class="dropdown">\\n            <button class="btn btn-primary dropdown-toggle" type="button" data-toggle="dropdown">\\n              <i id="iconoInfo" class="fa fa-cog" aria-hidden="true"></i>\\n            </button>\\n            <ul class="dropdown-menu">\\n              <li><a href="\', escape=False)\n    response.write(URL(\'modulos\',\'register\'))\n    response.write(\'">Registrar Usuario</a></li>\\n              <li><a href="\', escape=False)\n    response.write(URL(\'gestion\',\'usuarios\'))\n    response.write(\'">Usuarios Autorizados</a></li>\\n              <li><a href="\', escape=False)\n    response.write(URL(\'gestion\',\'dependencias\'))\n    response.write(\'">Dependencias</a></li>\\n              <li><a href="\', escape=False)\n    response.write(URL(\'gestion\',\'espacios_fisicos\'))\n    response.write(\'">Espacios F\\xc3\\xadsicos</a></li>\\n            </ul>\\n          </div>\\n        </li>\\n        \', escape=False)\n    pass\nresponse.write(\'\\n\\n        <li class="dropdown">\\n          <div class="dropdown">\\n            <button class="btn btn-primary dropdown-toggle" type="button" data-toggle="dropdown">\\n              <span id="iconoUser" class="glyphicon glyphicon-user dropdown-toggle"></span>\\n            </button>\\n            <ul class="dropdown-menu">\\n              <li>\', escape=False)\nif auth.is_logged_in():\n    response.write(\'<a href="\', escape=False)\n    response.write(URL(\'modulos\', \'editprofile\', args=\'profile\'))\n    response.write(\'">\', escape=False)\n    response.write(auth.user.first_name)\n    response.write(\'  \', escape=False)\n    response.write(auth.user.last_name)\n    response.write(\'</a>\', escape=False)\n    pass\nresponse.write(\'</li>\\n              <li><a href="\', escape=False)\nresponse.write(URL(\'modulos\',\'logout\'))\nresponse.write(\'">Salir</a></li>\\n            </ul>\\n          </div>\\n        </li>\\n      </ul> \\n     </div>\\n  </div>\\n</nav>\\n<!-- Fin de la barra de navegaci\\xc3\\xb3n principal -->\\n\\n<div class="fondoblanco"></div> \\n<div class="separador"></div>\\n\\n\', escape=False)\nresponse.write(\'\\n<nav class="navbar navbar-inverse navbar-fixed-top breadcrumbs">\\n  <div class="breadcrumb">\\n  <a class="breadcrumb-item" href="\', escape=False)\nresponse.write(URL(\'..\', \'sigulab2\'))\nresponse.write(\'">Inicio</a>\\n  <a class="breadcrumb-item" href="\', escape=False)\nresponse.write(URL(\'..\', \'sigulab2\',\'informacion_documentada\',\'\'))\nresponse.write(\'">Informaci\\xc3\\xb3n Documentada</a>\\n  <a class="breadcrumb-item" href="\', escape=False)\nresponse.write(URL(\'..\', \'sigulab2\',\'informacion_documentada\',\'\'))\nresponse.write(\'">Listado de Documentos</a>\\n  <span class="breadcrumb-item active">Ficha</span>\\n  </div>\\n</nav>\\n  \', escape=False)\nfor doc in documentos:\n    response.write(\'\\n\', escape=False)\n    response.write(\'\\n\\n<script type="text/javascript">\\n  if(window.location.pathname.includes(\\\'personal\\\')){\\n    $(\\\'li#personal\\\').addClass("active");\\n  }\\n  else if (window.location.pathname.includes(\\\'servicios\\\')){\\n    $(\\\'li#servicios\\\').addClass("active");\\n  }\\n</script>\\n</body>\\n</html>\\n\', escape=False)'
p7
sS'snapshot'
p8
(dp9
S'exception'
p10
(dp11
S'__module__'
p12
S"'gluon.rocket'"
p13
sS'__getslice__'
p14
S"<method-wrapper '__getslice__' of SocketTimeout object>"
p15
sS'__str__'
p16
S"<method-wrapper '__str__' of SocketTimeout object>"
p17
sS'__reduce__'
p18
S'<built-in method __reduce__ of SocketTimeout object>'
p19
sS'__dict__'
p20
S'{}'
p21
sS'__sizeof__'
p22
S'<built-in method __sizeof__ of SocketTimeout object>'
p23
sS'__weakref__'
p24
S'None'
p25
sS'message'
p26
S"'Socket timed out before request.'"
p27
sS'__init__'
p28
S"<method-wrapper '__init__' of SocketTimeout object>"
p29
sS'__setattr__'
p30
S"<method-wrapper '__setattr__' of SocketTimeout object>"
p31
sS'__reduce_ex__'
p32
S'<built-in method __reduce_ex__ of SocketTimeout object>'
p33
sS'__new__'
p34
S'<built-in method __new__ of type object>'
p35
sS'__format__'
p36
S'<built-in method __format__ of SocketTimeout object>'
p37
sS'__class__'
p38
S"<class 'gluon.rocket.SocketTimeout'>"
p39
sS'__doc__'
p40
S"'Exception for when a socket times out between requests.'"
p41
sS'__getitem__'
p42
S"<method-wrapper '__getitem__' of SocketTimeout object>"
p43
sS'__setstate__'
p44
S'<built-in method __setstate__ of SocketTimeout object>'
p45
sS'__getattribute__'
p46
S"<method-wrapper '__getattribute__' of SocketTimeout object>"
p47
sS'args'
p48
S"('Socket timed out before request.',)"
p49
sS'__subclasshook__'
p50
S'<built-in method __subclasshook__ of type object>'
p51
sS'__unicode__'
p52
S'<built-in method __unicode__ of SocketTimeout object>'
p53
sS'__delattr__'
p54
S"<method-wrapper '__delattr__' of SocketTimeout object>"
p55
sS'__repr__'
p56
S"<method-wrapper '__repr__' of SocketTimeout object>"
p57
sS'__hash__'
p58
S"<method-wrapper '__hash__' of SocketTimeout object>"
p59
ssS'evalue'
p60
S'Socket timed out before request.'
p61
sS'frames'
p62
(lp63
(dp64
S'file'
p65
S'/home/nairelys/Descargas/Sigulab/web2py/gluon/rocket.py'
p66
sS'dump'
p67
(dp68
S'self'
p69
S'<WSGIWorker(Thread-9, started daemon -1348474048)>'
p70
sS'conn'
p71
S'<gluon.rocket.Connection object>'
p72
sS'self.run_app'
p73
S'<bound method WSGIWorker.run_app of <WSGIWorker(Thread-9, started daemon -1348474048)>>'
p74
ssS'lnum'
p75
I1319
sS'lines'
p76
(dp77
I1314
S'            # Enter connection serve loop'
p78
sI1315
S'            while True:'
p79
sI1316
S'                if __debug__:'
p80
sI1317
S"                    self.err_log.debug('Serving a request')"
p81
sI1318
S'                try:'
p82
sI1319
S'                    self.run_app(conn)'
p83
sI1320
S'                except:'
p84
sI1321
S'                    exc = sys.exc_info()'
p85
sI1322
S'                    handled = self._handleError(*exc)'
p86
sI1323
S'                    if handled:'
p87
ssS'call'
p88
S'(self=<WSGIWorker(Thread-9, started daemon -1348474048)>)'
p89
sS'func'
p90
S'run'
p91
sa(dp92
g65
S'/home/nairelys/Descargas/Sigulab/web2py/gluon/rocket.py'
p93
sg67
(dp94
S'self'
p95
S'<WSGIWorker(Thread-9, started daemon -1348474048)>'
p96
sS'self.environ'
p97
S"{'HTTP_ACCEPT': 'text/html,application/xhtml+xml,application/xml;q=0.9,image/webp,image/apng,*/*;q=0.8', 'HTTP_ACCEPT_ENCODING': 'gzip, deflate, br', 'HTTP_ACCEPT_LANGUAGE': 'es-419,es;q=0.9', 'HTTP_CACHE_CONTROL': 'max-age=0', 'HTTP_CONNECTION': 'keep-alive', 'HTTP_COOKIE': 'csrftoken=V5qZDP9RSfIA9t9ZEr3gCjO16Mg6ALevDygMm7...b2=127.0.0.1-b575e9fd-0609-4dd9-b878-1e90120911c0', 'HTTP_HOST': '127.0.0.1:8000', 'HTTP_REFERER': 'http://127.0.0.1:8000/sigulab2/informacion_documentada/lista_documentos', 'HTTP_UPGRADE_INSECURE_REQUESTS': '1', 'HTTP_USER_AGENT': 'Mozilla/5.0 (X11; Linux i686) AppleWebKit/537.36...um/63.0.3239.84 Chrome/63.0.3239.84 Safari/537.36', ...}"
p98
sS'sock_file'
p99
S'<socket._fileobject object>'
p100
sS'environ'
p101
S'undefined'
p102
sS'self.build_environ'
p103
S'<bound method WSGIWorker.build_environ of <WSGIWorker(Thread-9, started daemon -1348474048)>>'
p104
sS'conn'
p105
S'<gluon.rocket.Connection object>'
p106
ssg75
I1812
sg76
(dp107
I1807
S'        else:'
p108
sI1808
S'            sock_file = conn.makefile(BUF_SIZE)'
p109
sI1809
S''
sI1810
S'        try:'
p110
sI1811
S'            # Read the headers and build our WSGI environment'
p111
sI1812
S'            self.environ = environ = self.build_environ(sock_file, conn)'
p112
sI1813
S''
sI1814
S'            # Handle 100 Continue'
p113
sI1815
S"            if environ.get('HTTP_EXPECT', '') == '100-continue':"
p114
sI1816
S"                res = environ['SERVER_PROTOCOL'] + ' 100 Continue\\r\\n\\r\\n'"
p115
ssg88
S'(self=<WSGIWorker(Thread-9, started daemon -1348474048)>, conn=<gluon.rocket.Connection object>)'
p116
sg90
S'run_app'
p117
sa(dp118
g65
S'/home/nairelys/Descargas/Sigulab/web2py/gluon/rocket.py'
p119
sg67
(dp120
S'sock_file'
p121
S'<socket._fileobject object>'
p122
sS'self.read_request_line'
p123
S'<bound method WSGIWorker.read_request_line of <WSGIWorker(Thread-9, started daemon -1348474048)>>'
p124
sS'self'
p125
S'<WSGIWorker(Thread-9, started daemon -1348474048)>'
p126
sS'request'
p127
g102
ssg75
I1632
sg76
(dp128
I1632
S'        request = self.read_request_line(sock_file)'
p129
sI1633
S''
sI1634
S'        # Copy the Base Environment'
p130
sI1635
S'        environ = self.base_environ.copy()'
p131
sI1636
S''
sI1627
S'                                      "wsgiorg.futures": executor.futures})'
p132
sI1628
S''
sI1629
S'    def build_environ(self, sock_file, conn):'
p133
sI1630
S'        """ Build the execution environment. """'
p134
sI1631
S'        # Grab the request line'
p135
ssg88
S'(self=<WSGIWorker(Thread-9, started daemon -1348474048)>, sock_file=<socket._fileobject object>, conn=<gluon.rocket.Connection object>)'
p136
sg90
S'build_environ'
p137
sa(dp138
g65
S'/home/nairelys/Descargas/Sigulab/web2py/gluon/rocket.py'
p139
sg67
(dp140
S'global SocketTimeout'
p141
S"<class 'gluon.rocket.SocketTimeout'>"
p142
ssg75
I1383
sg76
(dp143
I1378
S''
sI1379
S'                d = sock_file.readline()'
p144
sI1380
S'                if PY3K:'
p145
sI1381
S"                    d = d.decode('ISO-8859-1')"
p146
sI1382
S'        except socket.timeout:'
p147
sI1383
S"            raise SocketTimeout('Socket timed out before request.')"
p148
sI1384
S'        except TypeError:'
p149
sI1385
S'            raise SocketClosed('
p150
sI1386
S"                'SSL bug caused closure of socket.  See '"
p151
sI1387
S'                \'"https://groups.google.com/d/topic/web2py/P_Gw0JxWzCs".\')'
p152
ssg88
S'(self=<WSGIWorker(Thread-9, started daemon -1348474048)>, sock_file=<socket._fileobject object>)'
p153
sg90
S'read_request_line'
p154
sasS'pyver'
p155
S'Python 2.7.6: /usr/bin/python (prefix: /usr)'
p156
sS'etype'
p157
S"<class 'gluon.rocket.SocketTimeout'>"
p158
sS'date'
p159
S'Wed Jun 20 23:42:34 2018'
p160
sS'locals'
p161
(dp162
S'sock_file'
p163
S'<socket._fileobject object>'
p164
sS'self'
p165
S'<WSGIWorker(Thread-9, started daemon -1348474048)>'
p166
sssS'traceback'
p167
S'Traceback (most recent call last):\n  File "/home/nairelys/Descargas/Sigulab/web2py/gluon/rocket.py", line 1319, in run\n    self.run_app(conn)\n  File "/home/nairelys/Descargas/Sigulab/web2py/gluon/rocket.py", line 1812, in run_app\n    self.environ = environ = self.build_environ(sock_file, conn)\n  File "/home/nairelys/Descargas/Sigulab/web2py/gluon/rocket.py", line 1632, in build_environ\n    request = self.read_request_line(sock_file)\n  File "/home/nairelys/Descargas/Sigulab/web2py/gluon/rocket.py", line 1383, in read_request_line\n    raise SocketTimeout(\'Socket timed out before request.\')\nSocketTimeout: Socket timed out before request.\n'
p168
s.